; Function Attrs: nounwind uwtable
define internal i32 @ecdsa_get_ctx_md_params(ptr noundef readonly captures(none) %0, ptr noundef %1) #0 {
  %3 = getelementptr inbounds nuw i8, ptr %0, i64 360
  %4 = load ptr, ptr %3, align 8, !tbaa !18
  %5 = icmp eq ptr %4, null
  br i1 %5, label %8, label %6

6:                                                ; preds = %2
  %7 = tail call i32 @EVP_MD_CTX_get_params(ptr noundef nonnull %4, ptr noundef %1) #8
  br label %8

8:                                                ; preds = %2, %6
  %.0 = phi i32 [ %7, %6 ], [ 0, %2 ]
  ret i32 %.0
}